; Function Attrs: mustprogress nounwind uwtable
define dso_local void @_ZN13KleeExtensionD2Ev(ptr noundef nonnull align 8 dereferenceable(32) initializes((0, 8)) %0) unnamed_addr #3 align 2 personality ptr @__gxx_personality_v0 {
  store ptr getelementptr inbounds nuw inrange(-16, 64) (i8, ptr @_ZTV13KleeExtension, i64 16), ptr %0, align 8, !tbaa !4
  %2 = getelementptr inbounds nuw i8, ptr %0, i64 8
  %3 = load ptr, ptr %2, align 8, !tbaa !7
  %4 = getelementptr inbounds nuw i8, ptr %0, i64 16
  %5 = load ptr, ptr %4, align 8, !tbaa !12
  %.not.i.i = icmp eq ptr %5, %3
  br i1 %.not.i.i, label %_ZNSt6vectorIP14ExtensionValueSaIS1_EE5clearEv.exit, label %6

6:                                                ; preds = %1
  store ptr %3, ptr %4, align 8, !tbaa !12
  br label %_ZNSt6vectorIP14ExtensionValueSaIS1_EE5clearEv.exit

_ZNSt6vectorIP14ExtensionValueSaIS1_EE5clearEv.exit: ; preds = %1, %6
  %.not.i.i.i = icmp eq ptr %3, null
  br i1 %.not.i.i.i, label %_ZNSt6vectorIP14ExtensionValueSaIS1_EED2Ev.exit, label %7

7:                                                ; preds = %_ZNSt6vectorIP14ExtensionValueSaIS1_EE5clearEv.exit
  %8 = getelementptr inbounds nuw i8, ptr %0, i64 24
  %9 = load ptr, ptr %8, align 8, !tbaa !13
  %10 = ptrtoint ptr %9 to i64
  %11 = ptrtoint ptr %3 to i64
  %12 = sub i64 %10, %11
  tail call void @_ZdlPvm(ptr noundef nonnull %3, i64 noundef %12) #12
  br label %_ZNSt6vectorIP14ExtensionValueSaIS1_EED2Ev.exit

_ZNSt6vectorIP14ExtensionValueSaIS1_EED2Ev.exit:  ; preds = %_ZNSt6vectorIP14ExtensionValueSaIS1_EE5clearEv.exit, %7
  tail call void @_ZN12AbsExtensionD2Ev(ptr noundef nonnull align 8 dereferenceable(8) %0) #13
  ret void
}